; Function Attrs: mustprogress nounwind uwtable
define hidden noundef i64 @_ZN16XObjectAllocator18alloc_small_objectEm16XAllocationFlags(ptr nocapture noundef nonnull readonly align 8 dereferenceable(56) %0, i64 noundef %1, i8 %2) local_unnamed_addr #1 align 2 {
  %4 = load i8, ptr %0, align 8
  %5 = trunc i8 %4 to i1
  %6 = getelementptr inbounds i8, ptr %0, i64 48
  br i1 %5, label %7, label %22

7:                                                ; preds = %3
  %8 = load ptr, ptr @_ZN4XCPU9_affinityE, align 8
  %9 = tail call align 4 ptr @llvm.threadlocal.address.p0(ptr align 4 @_ZN4XCPU4_cpuE)
  %10 = load i32, ptr %9, align 4
  %11 = zext i32 %10 to i64
  %12 = getelementptr inbounds %class.PaddedEnd, ptr %8, i64 %11
  %13 = load ptr, ptr %12, align 8
  %14 = tail call align 8 ptr @llvm.threadlocal.address.p0(ptr align 8 @_ZN4XCPU5_selfE)
  %15 = load ptr, ptr %14, align 8
  %16 = icmp eq ptr %13, %15
  br i1 %16, label %_ZN14XPerCPUStorage2idEv.exit.i, label %17

17:                                               ; preds = %7
  %18 = tail call noundef i32 @_ZN4XCPU7id_slowEv() #7
  %.pre.i = zext i32 %18 to i64
  br label %_ZN14XPerCPUStorage2idEv.exit.i

_ZN14XPerCPUStorage2idEv.exit.i:                  ; preds = %17, %7
  %.pre-phi.i = phi i64 [ %11, %7 ], [ %.pre.i, %17 ]
  %19 = load i64, ptr %6, align 8
  %20 = shl nuw nsw i64 %.pre-phi.i, 12
  %21 = add i64 %20, %19
  br label %_ZN16XObjectAllocator22shared_small_page_addrEv.exit

22:                                               ; preds = %3
  %23 = load i64, ptr %6, align 8
  br label %_ZN16XObjectAllocator22shared_small_page_addrEv.exit

_ZN16XObjectAllocator22shared_small_page_addrEv.exit: ; preds = %_ZN14XPerCPUStorage2idEv.exit.i, %22
  %.in.i = phi i64 [ %21, %_ZN14XPerCPUStorage2idEv.exit.i ], [ %23, %22 ]
  %24 = inttoptr i64 %.in.i to ptr
  %25 = tail call noundef i64 @_ZN16XObjectAllocator27alloc_object_in_shared_pageEPP5XPagehmm16XAllocationFlags(ptr noundef nonnull align 8 dereferenceable(56) %0, ptr noundef %24, i8 noundef zeroext 0, i64 noundef 2097152, i64 noundef %1, i8 %2)
  ret i64 %25
}